; Function Attrs: mustprogress uwtable
define void @_ZN9grpc_core12EndpointList18ResetBackoffLockedEv(ptr nocapture noundef nonnull readonly align 8 dereferenceable(56) %this) local_unnamed_addr #3 align 2 {
entry:
  %endpoints_ = getelementptr inbounds i8, ptr %this, i64 32
  %0 = load ptr, ptr %endpoints_, align 8
  %_M_finish.i = getelementptr inbounds i8, ptr %this, i64 40
  %1 = load ptr, ptr %_M_finish.i, align 8
  %cmp.i.not4 = icmp eq ptr %0, %1
  br i1 %cmp.i.not4, label %for.end, label %for.body

for.body:                                         ; preds = %entry, %_ZN9grpc_core12EndpointList8Endpoint18ResetBackoffLockedEv.exit
  %__begin1.sroa.0.05 = phi ptr [ %incdec.ptr.i, %_ZN9grpc_core12EndpointList8Endpoint18ResetBackoffLockedEv.exit ], [ %0, %entry ]
  %2 = load ptr, ptr %__begin1.sroa.0.05, align 8
  %child_policy_.i = getelementptr inbounds i8, ptr %2, i64 24
  %3 = load ptr, ptr %child_policy_.i, align 8
  %cmp.i.i.not.i = icmp eq ptr %3, null
  br i1 %cmp.i.i.not.i, label %_ZN9grpc_core12EndpointList8Endpoint18ResetBackoffLockedEv.exit, label %if.then.i

if.then.i:                                        ; preds = %for.body
  %vtable.i = load ptr, ptr %3, align 8
  %vfn.i = getelementptr inbounds i8, ptr %vtable.i, i64 48
  %4 = load ptr, ptr %vfn.i, align 8
  tail call void %4(ptr noundef nonnull align 8 dereferenceable(56) %3)
  br label %_ZN9grpc_core12EndpointList8Endpoint18ResetBackoffLockedEv.exit

_ZN9grpc_core12EndpointList8Endpoint18ResetBackoffLockedEv.exit: ; preds = %for.body, %if.then.i
  %incdec.ptr.i = getelementptr inbounds i8, ptr %__begin1.sroa.0.05, i64 8
  %cmp.i.not = icmp eq ptr %incdec.ptr.i, %1
  br i1 %cmp.i.not, label %for.end, label %for.body

for.end:                                          ; preds = %_ZN9grpc_core12EndpointList8Endpoint18ResetBackoffLockedEv.exit, %entry
  ret void
}